; Function Attrs: mustprogress uwtable
define internal void @_ZNK12_GLOBAL__N_116itanium_demangle12ModuleEntity9printLeftERNS0_12OutputBufferE(ptr noundef nonnull readonly align 8 captures(none) dereferenceable(32) %0, ptr noundef nonnull align 8 dereferenceable(44) %1) unnamed_addr #2 align 2 {
  %3 = getelementptr inbounds nuw i8, ptr %0, i64 24
  %4 = load ptr, ptr %3, align 8, !tbaa !303
  %5 = load ptr, ptr %1, align 8, !tbaa !214
  %6 = getelementptr inbounds nuw i8, ptr %5, i64 16
  %7 = load ptr, ptr %6, align 8
  tail call void %7(ptr noundef nonnull align 8 dereferenceable(44) %1, ptr noundef nonnull align 8 dereferenceable(11) %4)
  %8 = getelementptr inbounds nuw i8, ptr %4, i64 9
  %9 = load i16, ptr %8, align 1
  %.mask3.i = and i16 %9, 192
  %.not.i = icmp eq i16 %.mask3.i, 64
  br i1 %.not.i, label %_ZNK12_GLOBAL__N_116itanium_demangle4Node5printERNS0_12OutputBufferE.exit, label %10

10:                                               ; preds = %2
  %11 = load ptr, ptr %1, align 8, !tbaa !214
  %12 = getelementptr inbounds nuw i8, ptr %11, i64 24
  %13 = load ptr, ptr %12, align 8
  tail call void %13(ptr noundef nonnull align 8 dereferenceable(44) %1, ptr noundef nonnull align 8 dereferenceable(11) %4)
  br label %_ZNK12_GLOBAL__N_116itanium_demangle4Node5printERNS0_12OutputBufferE.exit

_ZNK12_GLOBAL__N_116itanium_demangle4Node5printERNS0_12OutputBufferE.exit: ; preds = %2, %10
  %14 = getelementptr inbounds nuw i8, ptr %1, i64 16
  %15 = load i64, ptr %14, align 8, !tbaa !224
  %16 = add i64 %15, 1
  %17 = getelementptr inbounds nuw i8, ptr %1, i64 24
  %18 = load i64, ptr %17, align 8, !tbaa !225
  %19 = icmp ugt i64 %16, %18
  br i1 %19, label %20, label %._ZN12_GLOBAL__N_116itanium_demangle12OutputBuffer4growEm.exit_crit_edge.i

._ZN12_GLOBAL__N_116itanium_demangle12OutputBuffer4growEm.exit_crit_edge.i: ; preds = %_ZNK12_GLOBAL__N_116itanium_demangle4Node5printERNS0_12OutputBufferE.exit
  %.phi.trans.insert.i = getelementptr inbounds nuw i8, ptr %1, i64 8
  %.pre.i = load ptr, ptr %.phi.trans.insert.i, align 8, !tbaa !222
  br label %_ZN12_GLOBAL__N_116itanium_demangle12OutputBufferpLEc.exit

20:                                               ; preds = %_ZNK12_GLOBAL__N_116itanium_demangle4Node5printERNS0_12OutputBufferE.exit
  %21 = add i64 %15, 993
  %22 = shl i64 %18, 1
  %spec.select.i.i = tail call i64 @llvm.umax.i64(i64 %22, i64 %21)
  store i64 %spec.select.i.i, ptr %17, align 8, !tbaa !225
  %23 = getelementptr inbounds nuw i8, ptr %1, i64 8
  %24 = load ptr, ptr %23, align 8, !tbaa !222
  %25 = tail call ptr @realloc(ptr noundef %24, i64 noundef %spec.select.i.i) #34
  store ptr %25, ptr %23, align 8, !tbaa !222
  %26 = icmp eq ptr %25, null
  br i1 %26, label %27, label %._ZN12_GLOBAL__N_116itanium_demangle12OutputBuffer4growEm.exit_crit_edge1.i

._ZN12_GLOBAL__N_116itanium_demangle12OutputBuffer4growEm.exit_crit_edge1.i: ; preds = %20
  %.pre2.i = load i64, ptr %14, align 8, !tbaa !224
  %.pre3.i = add i64 %.pre2.i, 1
  br label %_ZN12_GLOBAL__N_116itanium_demangle12OutputBufferpLEc.exit

27:                                               ; preds = %20
  tail call void @abort() #33
  unreachable

_ZN12_GLOBAL__N_116itanium_demangle12OutputBufferpLEc.exit: ; preds = %._ZN12_GLOBAL__N_116itanium_demangle12OutputBuffer4growEm.exit_crit_edge.i, %._ZN12_GLOBAL__N_116itanium_demangle12OutputBuffer4growEm.exit_crit_edge1.i
  %.pre-phi.i = phi i64 [ %.pre3.i, %._ZN12_GLOBAL__N_116itanium_demangle12OutputBuffer4growEm.exit_crit_edge1.i ], [ %16, %._ZN12_GLOBAL__N_116itanium_demangle12OutputBuffer4growEm.exit_crit_edge.i ]
  %28 = phi i64 [ %.pre2.i, %._ZN12_GLOBAL__N_116itanium_demangle12OutputBuffer4growEm.exit_crit_edge1.i ], [ %15, %._ZN12_GLOBAL__N_116itanium_demangle12OutputBuffer4growEm.exit_crit_edge.i ]
  %29 = phi ptr [ %25, %._ZN12_GLOBAL__N_116itanium_demangle12OutputBuffer4growEm.exit_crit_edge1.i ], [ %.pre.i, %._ZN12_GLOBAL__N_116itanium_demangle12OutputBuffer4growEm.exit_crit_edge.i ]
  store i64 %.pre-phi.i, ptr %14, align 8, !tbaa !224
  %30 = getelementptr inbounds nuw i8, ptr %29, i64 %28
  store i8 64, ptr %30, align 1, !tbaa !210
  %31 = getelementptr inbounds nuw i8, ptr %0, i64 16
  %32 = load ptr, ptr %31, align 8, !tbaa !301
  %33 = load ptr, ptr %1, align 8, !tbaa !214
  %34 = getelementptr inbounds nuw i8, ptr %33, i64 16
  %35 = load ptr, ptr %34, align 8
  tail call void %35(ptr noundef nonnull align 8 dereferenceable(44) %1, ptr noundef nonnull align 8 dereferenceable(11) %32)
  %36 = getelementptr inbounds nuw i8, ptr %32, i64 9
  %37 = load i16, ptr %36, align 1
  %.mask3.i4 = and i16 %37, 192
  %.not.i5 = icmp eq i16 %.mask3.i4, 64
  br i1 %.not.i5, label %_ZNK12_GLOBAL__N_116itanium_demangle4Node5printERNS0_12OutputBufferE.exit6, label %38

38:                                               ; preds = %_ZN12_GLOBAL__N_116itanium_demangle12OutputBufferpLEc.exit
  %39 = load ptr, ptr %1, align 8, !tbaa !214
  %40 = getelementptr inbounds nuw i8, ptr %39, i64 24
  %41 = load ptr, ptr %40, align 8
  tail call void %41(ptr noundef nonnull align 8 dereferenceable(44) %1, ptr noundef nonnull align 8 dereferenceable(11) %32)
  br label %_ZNK12_GLOBAL__N_116itanium_demangle4Node5printERNS0_12OutputBufferE.exit6

_ZNK12_GLOBAL__N_116itanium_demangle4Node5printERNS0_12OutputBufferE.exit6: ; preds = %_ZN12_GLOBAL__N_116itanium_demangle12OutputBufferpLEc.exit, %38
  ret void
}